target datalayout = "e-m:e-p270:32:32-p271:32:32-p272:64:64-i64:64-i128:128-f80:128-n8:16:32:64-S128"
target triple = "x86_64-pc-linux-gnu"

%struct.mbedtls_asn1_buf = type { i32, i64, ptr }

@.str = private unnamed_addr constant [6 x i8] c"%c.%u\00", align 1
@.str.1 = private unnamed_addr constant [4 x i8] c".%u\00", align 1

; Function Attrs: nounwind uwtable
define hidden i32 @mbedtls_oid_get_numeric_string(ptr noundef %0, i64 noundef %1, ptr noundef %2) #0 {
  %4 = alloca i32, align 4
  %5 = alloca ptr, align 8
  %6 = alloca i64, align 8
  %7 = alloca ptr, align 8
  %8 = alloca i32, align 4
  %9 = alloca ptr, align 8
  %10 = alloca i64, align 8
  %11 = alloca i32, align 4
  %12 = alloca i32, align 4
  %13 = alloca i64, align 8
  %14 = alloca i32, align 4
  %15 = alloca i32, align 4
  store ptr %0, ptr %5, align 8, !tbaa !17
  store i64 %1, ptr %6, align 8, !tbaa !46
  store ptr %2, ptr %7, align 8, !tbaa !3
  call void @llvm.lifetime.start.p0(i64 4, ptr %8) #6
  store i32 -110, ptr %8, align 4, !tbaa !32
  call void @llvm.lifetime.start.p0(i64 8, ptr %9) #6
  %16 = load ptr, ptr %5, align 8, !tbaa !17
  store ptr %16, ptr %9, align 8, !tbaa !17
  call void @llvm.lifetime.start.p0(i64 8, ptr %10) #6
  %17 = load i64, ptr %6, align 8, !tbaa !46
  store i64 %17, ptr %10, align 8, !tbaa !46
  call void @llvm.lifetime.start.p0(i64 4, ptr %11) #6
  store i32 0, ptr %11, align 4, !tbaa !32
  %18 = load i64, ptr %6, align 8, !tbaa !46
  %19 = icmp ugt i64 %18, 2147483647
  br i1 %19, label %20, label %21

20:                                               ; preds = %3
  store i32 -100, ptr %4, align 4
  store i32 1, ptr %12, align 4
  br label %137

21:                                               ; preds = %3
  %22 = load ptr, ptr %7, align 8, !tbaa !3
  %23 = getelementptr inbounds nuw %struct.mbedtls_asn1_buf, ptr %22, i32 0, i32 1
  %24 = load i64, ptr %23, align 8, !tbaa !22
  %25 = icmp ule i64 %24, 0
  br i1 %25, label %26, label %27

26:                                               ; preds = %21
  store i32 -96, ptr %4, align 4
  store i32 1, ptr %12, align 4
  br label %137

27:                                               ; preds = %21
  call void @llvm.lifetime.start.p0(i64 8, ptr %13) #6
  store i64 0, ptr %13, align 8, !tbaa !46
  br label %28

28:                                               ; preds = %123, %27
  %29 = load i64, ptr %13, align 8, !tbaa !46
  %30 = load ptr, ptr %7, align 8, !tbaa !3
  %31 = getelementptr inbounds nuw %struct.mbedtls_asn1_buf, ptr %30, i32 0, i32 1
  %32 = load i64, ptr %31, align 8, !tbaa !22
  %33 = icmp ult i64 %29, %32
  br i1 %33, label %35, label %34

34:                                               ; preds = %28
  store i32 2, ptr %12, align 4
  br label %126

35:                                               ; preds = %28
  %36 = load i32, ptr %11, align 4, !tbaa !32
  %37 = icmp ugt i32 %36, 33554431
  br i1 %37, label %38, label %39

38:                                               ; preds = %35
  store i32 -104, ptr %4, align 4
  store i32 1, ptr %12, align 4
  br label %126

39:                                               ; preds = %35
  %40 = load i32, ptr %11, align 4, !tbaa !32
  %41 = icmp eq i32 %40, 0
  br i1 %41, label %42, label %52

42:                                               ; preds = %39
  %43 = load ptr, ptr %7, align 8, !tbaa !3
  %44 = getelementptr inbounds nuw %struct.mbedtls_asn1_buf, ptr %43, i32 0, i32 2
  %45 = load ptr, ptr %44, align 8, !tbaa !25
  %46 = load i64, ptr %13, align 8, !tbaa !46
  %47 = getelementptr inbounds nuw i8, ptr %45, i64 %46
  %48 = load i8, ptr %47, align 1, !tbaa !61
  %49 = zext i8 %48 to i32
  %50 = icmp eq i32 %49, 128
  br i1 %50, label %51, label %52

51:                                               ; preds = %42
  store i32 -104, ptr %4, align 4
  store i32 1, ptr %12, align 4
  br label %126

52:                                               ; preds = %42, %39
  %53 = load i32, ptr %11, align 4, !tbaa !32
  %54 = shl i32 %53, 7
  store i32 %54, ptr %11, align 4, !tbaa !32
  %55 = load ptr, ptr %7, align 8, !tbaa !3
  %56 = getelementptr inbounds nuw %struct.mbedtls_asn1_buf, ptr %55, i32 0, i32 2
  %57 = load ptr, ptr %56, align 8, !tbaa !25
  %58 = load i64, ptr %13, align 8, !tbaa !46
  %59 = getelementptr inbounds nuw i8, ptr %57, i64 %58
  %60 = load i8, ptr %59, align 1, !tbaa !61
  %61 = zext i8 %60 to i32
  %62 = and i32 %61, 127
  %63 = load i32, ptr %11, align 4, !tbaa !32
  %64 = or i32 %63, %62
  store i32 %64, ptr %11, align 4, !tbaa !32
  %65 = load ptr, ptr %7, align 8, !tbaa !3
  %66 = getelementptr inbounds nuw %struct.mbedtls_asn1_buf, ptr %65, i32 0, i32 2
  %67 = load ptr, ptr %66, align 8, !tbaa !25
  %68 = load i64, ptr %13, align 8, !tbaa !46
  %69 = getelementptr inbounds nuw i8, ptr %67, i64 %68
  %70 = load i8, ptr %69, align 1, !tbaa !61
  %71 = zext i8 %70 to i32
  %72 = and i32 %71, 128
  %73 = icmp ne i32 %72, 0
  br i1 %73, label %122, label %74

74:                                               ; preds = %52
  %75 = load i64, ptr %10, align 8, !tbaa !46
  %76 = load i64, ptr %6, align 8, !tbaa !46
  %77 = icmp eq i64 %75, %76
  br i1 %77, label %78, label %99

78:                                               ; preds = %74
  call void @llvm.lifetime.start.p0(i64 4, ptr %14) #6
  call void @llvm.lifetime.start.p0(i64 4, ptr %15) #6
  %79 = load i32, ptr %11, align 4, !tbaa !32
  %80 = icmp uge i32 %79, 80
  br i1 %80, label %81, label %84

81:                                               ; preds = %78
  store i32 50, ptr %14, align 4, !tbaa !32
  %82 = load i32, ptr %11, align 4, !tbaa !32
  %83 = sub i32 %82, 80
  store i32 %83, ptr %15, align 4, !tbaa !32
  br label %93

84:                                               ; preds = %78
  %85 = load i32, ptr %11, align 4, !tbaa !32
  %86 = icmp uge i32 %85, 40
  br i1 %86, label %87, label %90

87:                                               ; preds = %84
  store i32 49, ptr %14, align 4, !tbaa !32
  %88 = load i32, ptr %11, align 4, !tbaa !32
  %89 = sub i32 %88, 40
  store i32 %89, ptr %15, align 4, !tbaa !32
  br label %92

90:                                               ; preds = %84
  store i32 48, ptr %14, align 4, !tbaa !32
  %91 = load i32, ptr %11, align 4, !tbaa !32
  store i32 %91, ptr %15, align 4, !tbaa !32
  br label %92

92:                                               ; preds = %90, %87
  br label %93

93:                                               ; preds = %92, %81
  %94 = load ptr, ptr %9, align 8, !tbaa !17
  %95 = load i64, ptr %10, align 8, !tbaa !46
  %96 = load i32, ptr %14, align 4, !tbaa !32
  %97 = load i32, ptr %15, align 4, !tbaa !32
  %98 = call i32 (ptr, i64, ptr, ...) @snprintf(ptr noundef %94, i64 noundef %95, ptr noundef @.str, i32 noundef %96, i32 noundef %97) #6
  store i32 %98, ptr %8, align 4, !tbaa !32
  call void @llvm.lifetime.end.p0(i64 4, ptr %15) #6
  call void @llvm.lifetime.end.p0(i64 4, ptr %14) #6
  br label %104

99:                                               ; preds = %74
  %100 = load ptr, ptr %9, align 8, !tbaa !17
  %101 = load i64, ptr %10, align 8, !tbaa !46
  %102 = load i32, ptr %11, align 4, !tbaa !32
  %103 = call i32 (ptr, i64, ptr, ...) @snprintf(ptr noundef %100, i64 noundef %101, ptr noundef @.str.1, i32 noundef %102) #6
  store i32 %103, ptr %8, align 4, !tbaa !32
  br label %104

104:                                              ; preds = %99, %93
  %105 = load i32, ptr %8, align 4, !tbaa !32
  %106 = icmp slt i32 %105, 2
  br i1 %106, label %112, label %107

107:                                              ; preds = %104
  %108 = load i32, ptr %8, align 4, !tbaa !32
  %109 = sext i32 %108 to i64
  %110 = load i64, ptr %10, align 8, !tbaa !46
  %111 = icmp uge i64 %109, %110
  br i1 %111, label %112, label %113

112:                                              ; preds = %107, %104
  store i32 -11, ptr %4, align 4
  store i32 1, ptr %12, align 4
  br label %126

113:                                              ; preds = %107
  %114 = load i32, ptr %8, align 4, !tbaa !32
  %115 = sext i32 %114 to i64
  %116 = load i64, ptr %10, align 8, !tbaa !46
  %117 = sub i64 %116, %115
  store i64 %117, ptr %10, align 8, !tbaa !46
  %118 = load i32, ptr %8, align 4, !tbaa !32
  %119 = load ptr, ptr %9, align 8, !tbaa !17
  %120 = sext i32 %118 to i64
  %121 = getelementptr inbounds i8, ptr %119, i64 %120
  store ptr %121, ptr %9, align 8, !tbaa !17
  store i32 0, ptr %11, align 4, !tbaa !32
  br label %122

122:                                              ; preds = %113, %52
  br label %123

123:                                              ; preds = %122
  %124 = load i64, ptr %13, align 8, !tbaa !46
  %125 = add i64 %124, 1
  store i64 %125, ptr %13, align 8, !tbaa !46
  br label %28, !llvm.loop !62

126:                                              ; preds = %112, %51, %38, %34
  call void @llvm.lifetime.end.p0(i64 8, ptr %13) #6
  %127 = load i32, ptr %12, align 4
  switch i32 %127, label %137 [
    i32 2, label %128
  ]

128:                                              ; preds = %126
  %129 = load i32, ptr %11, align 4, !tbaa !32
  %130 = icmp ne i32 %129, 0
  br i1 %130, label %131, label %132

131:                                              ; preds = %128
  store i32 -96, ptr %4, align 4
  store i32 1, ptr %12, align 4
  br label %137

132:                                              ; preds = %128
  %133 = load i64, ptr %6, align 8, !tbaa !46
  %134 = load i64, ptr %10, align 8, !tbaa !46
  %135 = sub i64 %133, %134
  %136 = trunc i64 %135 to i32
  store i32 %136, ptr %4, align 4
  store i32 1, ptr %12, align 4
  br label %137

137:                                              ; preds = %132, %131, %126, %26, %20
  call void @llvm.lifetime.end.p0(i64 4, ptr %11) #6
  call void @llvm.lifetime.end.p0(i64 8, ptr %10) #6
  call void @llvm.lifetime.end.p0(i64 8, ptr %9) #6
  call void @llvm.lifetime.end.p0(i64 4, ptr %8) #6
  %138 = load i32, ptr %4, align 4
  ret i32 %138
}