; Function Attrs: nofree nounwind uwtable
define hidden i32 @mbedtls_oid_get_numeric_string(ptr noundef writeonly captures(none) %0, i64 noundef %1, ptr noundef readonly captures(none) %2) local_unnamed_addr #4 {
  %4 = icmp ugt i64 %1, 2147483647
  br i1 %4, label %.thread, label %5

5:                                                ; preds = %3
  %6 = getelementptr inbounds nuw i8, ptr %2, i64 8
  %7 = load i64, ptr %6, align 8, !tbaa !3
  %8 = icmp eq i64 %7, 0
  br i1 %8, label %.thread, label %.lr.ph

.lr.ph:                                           ; preds = %5
  %9 = getelementptr inbounds nuw i8, ptr %2, i64 16
  br label %.outer

.outer:                                           ; preds = %.thread74, %.lr.ph
  %.ph = phi i64 [ %.pre73, %.thread74 ], [ %7, %.lr.ph ]
  %.04369.ph = phi i64 [ %42, %.thread74 ], [ 0, %.lr.ph ]
  %.04667.ph = phi i64 [ %40, %.thread74 ], [ %1, %.lr.ph ]
  %.04866.ph = phi ptr [ %41, %.thread74 ], [ %0, %.lr.ph ]
  br label %10

10:                                               ; preds = %.outer, %38
  %.04369 = phi i64 [ %39, %38 ], [ %.04369.ph, %.outer ]
  %.04568 = phi i32 [ %20, %38 ], [ 0, %.outer ]
  %11 = icmp ugt i32 %.04568, 33554431
  br i1 %11, label %.thread, label %12

12:                                               ; preds = %10
  %13 = icmp eq i32 %.04568, 0
  %.pre = load ptr, ptr %9, align 8, !tbaa !13
  %14 = getelementptr inbounds nuw i8, ptr %.pre, i64 %.04369
  %15 = load i8, ptr %14, align 1, !tbaa !48
  %16 = icmp eq i8 %15, -128
  %or.cond = select i1 %13, i1 %16, i1 false
  br i1 %or.cond, label %.thread, label %._crit_edge71

._crit_edge71:                                    ; preds = %12
  %17 = shl nuw i32 %.04568, 7
  %18 = and i8 %15, 127
  %19 = zext nneg i8 %18 to i32
  %20 = or disjoint i32 %17, %19
  %.not = icmp sgt i8 %15, -1
  br i1 %.not, label %21, label %38

21:                                               ; preds = %._crit_edge71
  %22 = icmp eq i64 %.04667.ph, %1
  br i1 %22, label %23, label %32

23:                                               ; preds = %21
  %24 = icmp ugt i32 %20, 79
  br i1 %24, label %25, label %27

25:                                               ; preds = %23
  %26 = add i32 %20, -80
  br label %30

27:                                               ; preds = %23
  %28 = icmp samesign ugt i32 %20, 39
  %29 = add nsw i32 %20, -40
  %spec.select = select i1 %28, i32 49, i32 48
  %spec.select60 = select i1 %28, i32 %29, i32 %20
  br label %30

30:                                               ; preds = %27, %25
  %.042 = phi i32 [ 50, %25 ], [ %spec.select, %27 ]
  %.0 = phi i32 [ %26, %25 ], [ %spec.select60, %27 ]
  %31 = tail call i32 (ptr, i64, ptr, ...) @snprintf(ptr noundef %.04866.ph, i64 noundef %1, ptr noundef nonnull @.str, i32 noundef %.042, i32 noundef %.0) #13
  br label %34

32:                                               ; preds = %21
  %33 = tail call i32 (ptr, i64, ptr, ...) @snprintf(ptr noundef %.04866.ph, i64 noundef %.04667.ph, ptr noundef nonnull @.str.1, i32 noundef %20) #13
  br label %34

34:                                               ; preds = %32, %30
  %.050 = phi i32 [ %31, %30 ], [ %33, %32 ]
  %35 = icmp slt i32 %.050, 2
  br i1 %35, label %.thread, label %36

36:                                               ; preds = %34
  %37 = zext nneg i32 %.050 to i64
  %.not57 = icmp ugt i64 %.04667.ph, %37
  br i1 %.not57, label %.thread74, label %.thread

38:                                               ; preds = %._crit_edge71
  %39 = add nuw i64 %.04369, 1
  %.not58 = icmp ult i64 %39, %.ph
  br i1 %.not58, label %10, label %._crit_edge, !llvm.loop !49

.thread74:                                        ; preds = %36
  %40 = sub nuw i64 %.04667.ph, %37
  %41 = getelementptr inbounds nuw i8, ptr %.04866.ph, i64 %37
  %.pre73 = load i64, ptr %6, align 8, !tbaa !3
  %42 = add nuw i64 %.04369, 1
  %.not5878 = icmp ult i64 %42, %.pre73
  br i1 %.not5878, label %.outer, label %._crit_edge.thread, !llvm.loop !49

._crit_edge:                                      ; preds = %38
  %.not59 = icmp eq i32 %20, 0
  br i1 %.not59, label %._crit_edge.thread, label %.thread

._crit_edge.thread:                               ; preds = %.thread74, %._crit_edge
  %.1477984 = phi i64 [ %.04667.ph, %._crit_edge ], [ %40, %.thread74 ]
  %43 = sub i64 %1, %.1477984
  %44 = trunc i64 %43 to i32
  br label %.thread

.thread:                                          ; preds = %36, %34, %12, %10, %._crit_edge, %5, %3, %._crit_edge.thread
  %.051 = phi i32 [ %44, %._crit_edge.thread ], [ -100, %3 ], [ -96, %5 ], [ -96, %._crit_edge ], [ -104, %10 ], [ -104, %12 ], [ -11, %34 ], [ -11, %36 ]
  ret i32 %.051
}